target datalayout = "e-m:e-p270:32:32-p271:32:32-p272:64:64-i64:64-i128:128-f80:128-n8:16:32:64-S128"
target triple = "x86_64-pc-linux-gnu"

%"class.icu_77::StringSearch" = type { %"class.icu_77::SearchIterator", %"class.icu_77::UnicodeString", ptr }
%"class.icu_77::SearchIterator" = type { %"class.icu_77::UObject", ptr, ptr, %"class.icu_77::UnicodeString" }
%"class.icu_77::UObject" = type { ptr }
%"class.icu_77::UnicodeString" = type { %"class.icu_77::Replaceable", %"union.icu_77::UnicodeString::StackBufferOrFields" }
%"class.icu_77::Replaceable" = type { %"class.icu_77::UObject" }
%"union.icu_77::UnicodeString::StackBufferOrFields" = type { %struct.anon.0, [32 x i8] }
%struct.anon.0 = type { i16, i32, i32, ptr }
%struct.UStringSearch = type { ptr, %struct.UPattern, ptr, ptr, ptr, ptr, ptr, i8, i32, i32, i32, i8 }
%struct.UPattern = type { ptr, i32, i32, ptr, [256 x i32], i32, ptr, [256 x i64], i8, i8 }
%struct.USearch = type { ptr, i32, i8, i8, i16, ptr, ptr, i32, i32, i8, i8 }

@_ZN6icu_7712StringSearchC1ERKNS_13UnicodeStringES3_PNS_17RuleBasedCollatorEPNS_13BreakIteratorER10UErrorCode = unnamed_addr alias void (ptr, ptr, ptr, ptr, ptr, ptr), ptr @_ZN6icu_7712StringSearchC2ERKNS_13UnicodeStringES3_PNS_17RuleBasedCollatorEPNS_13BreakIteratorER10UErrorCode

; Function Attrs: inlinehint mustprogress nounwind uwtable
define linkonce_odr noundef ptr @_ZN6icu_778Collator13fromUCollatorEP9UCollator(ptr noundef %0) #3 comdat align 2 {
  %2 = alloca ptr, align 8
  store ptr %0, ptr %2, align 8, !tbaa !55
  %3 = load ptr, ptr %2, align 8, !tbaa !55
  ret ptr %3
}

; Function Attrs: inlinehint mustprogress uwtable
define linkonce_odr noundef ptr @_ZN6icu_7717RuleBasedCollator16rbcFromUCollatorEP9UCollator(ptr noundef %0) #4 comdat align 2 {
  %2 = alloca ptr, align 8
  store ptr %0, ptr %2, align 8, !tbaa !55
  %3 = load ptr, ptr %2, align 8, !tbaa !55
  %4 = call noundef ptr @_ZN6icu_778Collator13fromUCollatorEP9UCollator(ptr noundef %3)
  %5 = icmp eq ptr %4, null
  br i1 %5, label %9, label %6

6:                                                ; preds = %1
  %7 = load ptr, ptr %4, align 8, !tbaa !15
  %8 = icmp eq ptr %7, getelementptr inbounds inrange(-16, 328) ({ [43 x ptr] }, ptr @_ZTVN6icu_7717RuleBasedCollatorE, i32 0, i32 0, i32 2)
  br i1 %8, label %10, label %9

9:                                                ; preds = %6, %1
  br label %10

10:                                               ; preds = %9, %6
  %11 = phi ptr [ %4, %6 ], [ null, %9 ]
  ret ptr %11
}

; Function Attrs: inlinehint mustprogress nounwind uwtable
define internal noundef signext i8 @_ZL9U_FAILURE10UErrorCode(i32 noundef %0) #3 {
  %2 = alloca i32, align 4
  store i32 %0, ptr %2, align 4, !tbaa !17
  %3 = load i32, ptr %2, align 4, !tbaa !17
  %4 = icmp sgt i32 %3, 0
  %5 = zext i1 %4 to i8
  ret i8 %5
}

; Function Attrs: mustprogress uwtable
define void @_ZN6icu_7712StringSearch9setOffsetEiR10UErrorCode(ptr noundef nonnull align 8 dereferenceable(160) %0, i32 noundef %1, ptr noundef nonnull align 4 dereferenceable(4) %2) unnamed_addr #1 align 2 {
  %4 = alloca ptr, align 8
  %5 = alloca i32, align 4
  %6 = alloca ptr, align 8
  store ptr %0, ptr %4, align 8, !tbaa !3
  store i32 %1, ptr %5, align 4, !tbaa !54
  store ptr %2, ptr %6, align 8, !tbaa !14
  %7 = load ptr, ptr %4, align 8
  %8 = getelementptr inbounds nuw %"class.icu_77::StringSearch", ptr %7, i32 0, i32 2
  %9 = load ptr, ptr %8, align 8, !tbaa !19
  %10 = load i32, ptr %5, align 4, !tbaa !54
  %11 = load ptr, ptr %6, align 8, !tbaa !14
  call void @usearch_setOffset_77(ptr noundef %9, i32 noundef %10, ptr noundef %11)
  ret void
}

; Function Attrs: mustprogress uwtable
define noundef i32 @_ZNK6icu_7712StringSearch9getOffsetEv(ptr noundef nonnull align 8 dereferenceable(160) %0) unnamed_addr #1 align 2 {
  %2 = alloca ptr, align 8
  store ptr %0, ptr %2, align 8, !tbaa !3
  %3 = load ptr, ptr %2, align 8
  %4 = getelementptr inbounds nuw %"class.icu_77::StringSearch", ptr %3, i32 0, i32 2
  %5 = load ptr, ptr %4, align 8, !tbaa !19
  %6 = call i32 @usearch_getOffset_77(ptr noundef %5)
  ret i32 %6
}

; Function Attrs: mustprogress uwtable
define noundef ptr @_ZNK6icu_7712StringSearch11getCollatorEv(ptr noundef nonnull align 8 dereferenceable(160) %0) #1 align 2 {
  %2 = alloca ptr, align 8
  store ptr %0, ptr %2, align 8, !tbaa !3
  %3 = load ptr, ptr %2, align 8
  %4 = getelementptr inbounds nuw %"class.icu_77::StringSearch", ptr %3, i32 0, i32 2
  %5 = load ptr, ptr %4, align 8, !tbaa !19
  %6 = getelementptr inbounds nuw %struct.UStringSearch, ptr %5, i32 0, i32 2
  %7 = load ptr, ptr %6, align 8, !tbaa !51
  %8 = call noundef ptr @_ZN6icu_7717RuleBasedCollator16rbcFromUCollatorEP9UCollator(ptr noundef %7)
  ret ptr %8
}

; Function Attrs: mustprogress uwtable
define noundef ptr @_ZNK6icu_7712StringSearch9safeCloneEv(ptr noundef nonnull align 8 dereferenceable(160) %0) unnamed_addr #1 align 2 personality ptr @__gxx_personality_v0 {
  %2 = alloca ptr, align 8
  %3 = alloca ptr, align 8
  %4 = alloca i32, align 4
  %5 = alloca ptr, align 8
  %6 = alloca i1, align 1
  %7 = alloca ptr, align 8
  %8 = alloca i32, align 4
  %9 = alloca i32, align 4
  store ptr %0, ptr %3, align 8, !tbaa !3
  %10 = load ptr, ptr %3, align 8
  call void @llvm.lifetime.start.p0(i64 4, ptr %4) #8
  store i32 0, ptr %4, align 4, !tbaa !17
  call void @llvm.lifetime.start.p0(i64 8, ptr %5) #8
  %11 = call noundef ptr @_ZN6icu_777UMemorynwEm(i64 noundef 160) #8
  %12 = icmp eq ptr %11, null
  store i1 false, ptr %6, align 1
  br i1 %12, label %21, label %13

13:                                               ; preds = %1
  store i1 true, ptr %6, align 1
  %14 = getelementptr inbounds nuw %"class.icu_77::StringSearch", ptr %10, i32 0, i32 1
  %15 = getelementptr inbounds nuw %"class.icu_77::SearchIterator", ptr %10, i32 0, i32 3
  %16 = invoke noundef ptr @_ZNK6icu_7712StringSearch11getCollatorEv(ptr noundef nonnull align 8 dereferenceable(160) %10)
          to label %17 unwind label %26

17:                                               ; preds = %13
  %18 = getelementptr inbounds nuw %"class.icu_77::SearchIterator", ptr %10, i32 0, i32 2
  %19 = load ptr, ptr %18, align 8, !tbaa !50
  invoke void @_ZN6icu_7712StringSearchC1ERKNS_13UnicodeStringES3_PNS_17RuleBasedCollatorEPNS_13BreakIteratorER10UErrorCode(ptr noundef nonnull align 8 dereferenceable(160) %11, ptr noundef nonnull align 8 dereferenceable(64) %14, ptr noundef nonnull align 8 dereferenceable(64) %15, ptr noundef %16, ptr noundef %19, ptr noundef nonnull align 4 dereferenceable(4) %4)
          to label %20 unwind label %26

20:                                               ; preds = %17
  br label %21

21:                                               ; preds = %20, %1
  %22 = phi ptr [ %11, %20 ], [ null, %1 ]
  store ptr %22, ptr %5, align 8, !tbaa !3
  %23 = load ptr, ptr %5, align 8, !tbaa !3
  %24 = icmp eq ptr %23, null
  br i1 %24, label %25, label %33

25:                                               ; preds = %21
  store i32 7, ptr %4, align 4, !tbaa !17
  store ptr null, ptr %2, align 8
  store i32 1, ptr %9, align 4
  br label %56

26:                                               ; preds = %17, %13
  %27 = landingpad { ptr, i32 }
          cleanup
  %28 = extractvalue { ptr, i32 } %27, 0
  store ptr %28, ptr %7, align 8
  %29 = extractvalue { ptr, i32 } %27, 1
  store i32 %29, ptr %8, align 4
  %30 = load i1, ptr %6, align 1
  br i1 %30, label %31, label %32

31:                                               ; preds = %26
  call void @_ZN6icu_777UMemorydlEPv(ptr noundef %11) #8
  br label %32

32:                                               ; preds = %31, %26
  call void @llvm.lifetime.end.p0(i64 8, ptr %5) #8
  call void @llvm.lifetime.end.p0(i64 4, ptr %4) #8
  br label %58

33:                                               ; preds = %21
  %34 = load ptr, ptr %5, align 8, !tbaa !3
  %35 = call noundef i32 @_ZNK6icu_7712StringSearch9getOffsetEv(ptr noundef nonnull align 8 dereferenceable(160) %10)
  call void @_ZN6icu_7712StringSearch9setOffsetEiR10UErrorCode(ptr noundef nonnull align 8 dereferenceable(160) %34, i32 noundef %35, ptr noundef nonnull align 4 dereferenceable(4) %4)
  %36 = load ptr, ptr %5, align 8, !tbaa !3
  %37 = getelementptr inbounds nuw %"class.icu_77::StringSearch", ptr %10, i32 0, i32 2
  %38 = load ptr, ptr %37, align 8, !tbaa !19
  %39 = getelementptr inbounds nuw %struct.UStringSearch, ptr %38, i32 0, i32 0
  %40 = load ptr, ptr %39, align 8, !tbaa !28
  %41 = getelementptr inbounds nuw %struct.USearch, ptr %40, i32 0, i32 7
  %42 = load i32, ptr %41, align 8, !tbaa !56
  call void @_ZN6icu_7714SearchIterator13setMatchStartEi(ptr noundef nonnull align 8 dereferenceable(88) %36, i32 noundef %42)
  %43 = load ptr, ptr %5, align 8, !tbaa !3
  %44 = getelementptr inbounds nuw %"class.icu_77::StringSearch", ptr %10, i32 0, i32 2
  %45 = load ptr, ptr %44, align 8, !tbaa !19
  %46 = getelementptr inbounds nuw %struct.UStringSearch, ptr %45, i32 0, i32 0
  %47 = load ptr, ptr %46, align 8, !tbaa !28
  %48 = getelementptr inbounds nuw %struct.USearch, ptr %47, i32 0, i32 8
  %49 = load i32, ptr %48, align 4, !tbaa !60
  call void @_ZN6icu_7714SearchIterator14setMatchLengthEi(ptr noundef nonnull align 8 dereferenceable(88) %43, i32 noundef %49)
  %50 = load i32, ptr %4, align 4, !tbaa !17
  %51 = call noundef signext i8 @_ZL9U_FAILURE10UErrorCode(i32 noundef %50)
  %52 = icmp ne i8 %51, 0
  br i1 %52, label %53, label %54

53:                                               ; preds = %33
  store ptr null, ptr %2, align 8
  store i32 1, ptr %9, align 4
  br label %56

54:                                               ; preds = %33
  %55 = load ptr, ptr %5, align 8, !tbaa !3
  store ptr %55, ptr %2, align 8
  store i32 1, ptr %9, align 4
  br label %56

56:                                               ; preds = %54, %53, %25
  call void @llvm.lifetime.end.p0(i64 8, ptr %5) #8
  call void @llvm.lifetime.end.p0(i64 4, ptr %4) #8
  %57 = load ptr, ptr %2, align 8
  ret ptr %57

58:                                               ; preds = %32
  %59 = load ptr, ptr %7, align 8
  %60 = load i32, ptr %8, align 4
  %61 = insertvalue { ptr, i32 } poison, ptr %59, 0
  %62 = insertvalue { ptr, i32 } %61, i32 %60, 1
  resume { ptr, i32 } %62
}