; Function Attrs: mustprogress uwtable
define noundef ptr @_ZNK6icu_7712StringSearch9safeCloneEv(ptr noundef nonnull align 8 dereferenceable(160) %0) unnamed_addr #1 align 2 personality ptr @__gxx_personality_v0 {
  %2 = alloca i32, align 4
  call void @llvm.lifetime.start.p0(i64 4, ptr nonnull %2) #9
  store i32 0, ptr %2, align 4, !tbaa !6
  %3 = tail call noundef ptr @_ZN6icu_777UMemorynwEm(i64 noundef 160) #9
  %4 = icmp eq ptr %3, null
  br i1 %4, label %37, label %5

5:                                                ; preds = %1
  %6 = getelementptr inbounds nuw i8, ptr %0, i64 152
  %7 = load ptr, ptr %6, align 8, !tbaa !9
  %8 = getelementptr inbounds nuw i8, ptr %7, i64 3128
  %9 = load ptr, ptr %8, align 8, !tbaa !37
  %10 = icmp eq ptr %9, null
  br i1 %10, label %14, label %11

11:                                               ; preds = %5
  %12 = load ptr, ptr %9, align 8, !tbaa !3
  %13 = icmp eq ptr %12, getelementptr inbounds nuw inrange(-16, 328) (i8, ptr @_ZTVN6icu_7717RuleBasedCollatorE, i64 16)
  br i1 %13, label %_ZNK6icu_7712StringSearch11getCollatorEv.exit, label %14

14:                                               ; preds = %11, %5
  br label %_ZNK6icu_7712StringSearch11getCollatorEv.exit

_ZNK6icu_7712StringSearch11getCollatorEv.exit:    ; preds = %14, %11
  %15 = phi ptr [ %9, %11 ], [ null, %14 ]
  %16 = getelementptr inbounds nuw i8, ptr %0, i64 24
  %17 = getelementptr inbounds nuw i8, ptr %0, i64 88
  %18 = getelementptr inbounds nuw i8, ptr %0, i64 16
  %19 = load ptr, ptr %18, align 8, !tbaa !36
  invoke void @_ZN6icu_7712StringSearchC1ERKNS_13UnicodeStringES3_PNS_17RuleBasedCollatorEPNS_13BreakIteratorER10UErrorCode(ptr noundef nonnull align 8 dereferenceable(160) %3, ptr noundef nonnull align 8 dereferenceable(64) %17, ptr noundef nonnull align 8 dereferenceable(64) %16, ptr noundef %15, ptr noundef %19, ptr noundef nonnull align 4 dereferenceable(4) %2)
          to label %22 unwind label %20

20:                                               ; preds = %_ZNK6icu_7712StringSearch11getCollatorEv.exit
  %21 = landingpad { ptr, i32 }
          cleanup
  call void @_ZN6icu_777UMemorydlEPv(ptr noundef nonnull %3) #9
  call void @llvm.lifetime.end.p0(i64 4, ptr nonnull %2) #9
  resume { ptr, i32 } %21

22:                                               ; preds = %_ZNK6icu_7712StringSearch11getCollatorEv.exit
  %23 = load ptr, ptr %6, align 8, !tbaa !9
  %24 = call noundef i32 @usearch_getOffset_77(ptr noundef %23)
  %25 = getelementptr inbounds nuw i8, ptr %3, i64 152
  %26 = load ptr, ptr %25, align 8, !tbaa !9
  call void @usearch_setOffset_77(ptr noundef %26, i32 noundef %24, ptr noundef nonnull align 4 dereferenceable(4) %2)
  %27 = load ptr, ptr %6, align 8, !tbaa !9
  %28 = load ptr, ptr %27, align 8, !tbaa !25
  %29 = getelementptr inbounds nuw i8, ptr %28, i64 32
  %30 = load i32, ptr %29, align 8, !tbaa !38
  call void @_ZN6icu_7714SearchIterator13setMatchStartEi(ptr noundef nonnull align 8 dereferenceable(88) %3, i32 noundef %30)
  %31 = load ptr, ptr %6, align 8, !tbaa !9
  %32 = load ptr, ptr %31, align 8, !tbaa !25
  %33 = getelementptr inbounds nuw i8, ptr %32, i64 36
  %34 = load i32, ptr %33, align 4, !tbaa !42
  call void @_ZN6icu_7714SearchIterator14setMatchLengthEi(ptr noundef nonnull align 8 dereferenceable(88) %3, i32 noundef %34)
  %35 = load i32, ptr %2, align 4, !tbaa !6
  %36 = icmp slt i32 %35, 1
  %. = select i1 %36, ptr %3, ptr null
  br label %37

37:                                               ; preds = %1, %22
  %.0 = phi ptr [ %., %22 ], [ null, %1 ]
  call void @llvm.lifetime.end.p0(i64 4, ptr nonnull %2) #9
  ret ptr %.0
}